; ModuleID = 'source-C-CXX/4/419.c'
source_filename = "source-C-CXX/4/419.c"
target datalayout = "e-m:e-p270:32:32-p271:32:32-p272:64:64-i64:64-f80:128-n8:16:32:64-S128"
target triple = "x86_64-pc-linux-gnu"

@.str = private unnamed_addr constant [4 x i8] c"%lf\00", align 1
@.str.1 = private unnamed_addr constant [4 x i8] c"%s\0A\00", align 1
@.str.2 = private unnamed_addr constant [3 x i8] c"%s\00", align 1
@.str.3 = private unnamed_addr constant [6 x i8] c"error\00", align 1
@.str.4 = private unnamed_addr constant [4 x i8] c"yes\00", align 1
@.str.5 = private unnamed_addr constant [3 x i8] c"no\00", align 1

; Function Attrs: mustprogress nofree norecurse nosync nounwind readnone sspstrong uwtable willreturn
define dso_local i32 @f(i8 signext %0, i8 signext %1) local_unnamed_addr #0 {
  %3 = icmp eq i8 %0, %1
  %4 = zext i1 %3 to i32
  ret i32 %4
}

; Function Attrs: nofree nounwind sspstrong uwtable
define dso_local i32 @main() local_unnamed_addr #1 {
  %1 = alloca double, align 8
  %2 = alloca [1000 x i8], align 16
  %3 = alloca [1000 x i8], align 16
  %4 = bitcast double* %1 to i8*
  call void @llvm.lifetime.start.p0i8(i64 8, i8* nonnull %4) #5
  %5 = call i32 (i8*, ...) @__isoc99_scanf(i8* getelementptr inbounds ([4 x i8], [4 x i8]* @.str, i64 0, i64 0), double* nonnull %1)
  %6 = getelementptr inbounds [1000 x i8], [1000 x i8]* %2, i64 0, i64 0
  call void @llvm.lifetime.start.p0i8(i64 1000, i8* nonnull %6) #5
  %7 = getelementptr inbounds [1000 x i8], [1000 x i8]* %3, i64 0, i64 0
  call void @llvm.lifetime.start.p0i8(i64 1000, i8* nonnull %7) #5
  %8 = call i32 (i8*, ...) @__isoc99_scanf(i8* getelementptr inbounds ([4 x i8], [4 x i8]* @.str.1, i64 0, i64 0), i8* nonnull %6)
  %9 = call i32 (i8*, ...) @__isoc99_scanf(i8* getelementptr inbounds ([3 x i8], [3 x i8]* @.str.2, i64 0, i64 0), i8* nonnull %7)
  %10 = call i64 @strlen(i8* noundef nonnull %6) #6
  %11 = trunc i64 %10 to i32
  %12 = call i64 @strlen(i8* noundef nonnull %7) #6
  %13 = trunc i64 %12 to i32
  %14 = icmp eq i32 %11, %13
  br i1 %14, label %15, label %49

15:                                               ; preds = %0, %25
  %16 = phi i64 [ %26, %25 ], [ 0, %0 ]
  %17 = getelementptr inbounds [1000 x i8], [1000 x i8]* %2, i64 0, i64 %16
  %18 = load i8, i8* %17, align 1, !tbaa !5
  switch i8 %18, label %49 [
    i8 0, label %19
    i8 65, label %22
    i8 67, label %22
    i8 71, label %22
    i8 84, label %22
  ]

19:                                               ; preds = %15
  %20 = load i8, i8* %6, align 16, !tbaa !5
  %21 = icmp eq i8 %20, 0
  br i1 %21, label %42, label %27

22:                                               ; preds = %15, %15, %15, %15
  %23 = getelementptr inbounds [1000 x i8], [1000 x i8]* %3, i64 0, i64 %16
  %24 = load i8, i8* %23, align 1, !tbaa !5
  switch i8 %24, label %49 [
    i8 65, label %25
    i8 67, label %25
    i8 71, label %25
    i8 84, label %25
  ]

25:                                               ; preds = %22, %22, %22, %22
  %26 = add nuw i64 %16, 1
  br label %15, !llvm.loop !8

27:                                               ; preds = %19, %27
  %28 = phi i64 [ %36, %27 ], [ 0, %19 ]
  %29 = phi i8 [ %38, %27 ], [ %20, %19 ]
  %30 = phi i32 [ %35, %27 ], [ 0, %19 ]
  %31 = getelementptr inbounds [1000 x i8], [1000 x i8]* %3, i64 0, i64 %28
  %32 = load i8, i8* %31, align 1, !tbaa !5
  %33 = icmp eq i8 %29, %32
  %34 = zext i1 %33 to i32
  %35 = add nuw nsw i32 %30, %34
  %36 = add nuw nsw i64 %28, 1
  %37 = getelementptr inbounds [1000 x i8], [1000 x i8]* %2, i64 0, i64 %36
  %38 = load i8, i8* %37, align 1, !tbaa !5
  %39 = icmp eq i8 %38, 0
  br i1 %39, label %40, label %27, !llvm.loop !10

40:                                               ; preds = %27
  %41 = sitofp i32 %35 to double
  br label %42

42:                                               ; preds = %40, %19
  %43 = phi double [ 0.000000e+00, %19 ], [ %41, %40 ]
  %44 = sitofp i32 %11 to double
  %45 = fdiv double %43, %44
  %46 = load double, double* %1, align 8, !tbaa !11
  %47 = fcmp ogt double %45, %46
  %48 = select i1 %47, i8* getelementptr inbounds ([4 x i8], [4 x i8]* @.str.4, i64 0, i64 0), i8* getelementptr inbounds ([3 x i8], [3 x i8]* @.str.5, i64 0, i64 0)
  br label %49

49:                                               ; preds = %15, %22, %42, %0
  %50 = phi i8* [ getelementptr inbounds ([6 x i8], [6 x i8]* @.str.3, i64 0, i64 0), %0 ], [ %48, %42 ], [ getelementptr inbounds ([6 x i8], [6 x i8]* @.str.3, i64 0, i64 0), %22 ], [ getelementptr inbounds ([6 x i8], [6 x i8]* @.str.3, i64 0, i64 0), %15 ]
  %51 = call i32 (i8*, ...) @printf(i8* nonnull dereferenceable(1) %50)
  call void @llvm.lifetime.end.p0i8(i64 1000, i8* nonnull %7) #5
  call void @llvm.lifetime.end.p0i8(i64 1000, i8* nonnull %6) #5
  call void @llvm.lifetime.end.p0i8(i64 8, i8* nonnull %4) #5
  ret i32 0
}

; Function Attrs: argmemonly mustprogress nofree nosync nounwind willreturn
declare void @llvm.lifetime.start.p0i8(i64 immarg, i8* nocapture) #2

; Function Attrs: nofree nounwind
declare noundef i32 @__isoc99_scanf(i8* nocapture noundef readonly, ...) local_unnamed_addr #3

; Function Attrs: argmemonly mustprogress nofree nounwind readonly willreturn
declare i64 @strlen(i8* nocapture) local_unnamed_addr #4

; Function Attrs: nofree nounwind
declare noundef i32 @printf(i8* nocapture noundef readonly, ...) local_unnamed_addr #3

; Function Attrs: argmemonly mustprogress nofree nosync nounwind willreturn
declare void @llvm.lifetime.end.p0i8(i64 immarg, i8* nocapture) #2


!llvm.module.flags = !{!0, !1, !2, !3}
!llvm.ident = !{!4}

!0 = !{i32 1, !"wchar_size", i32 4}
!1 = !{i32 7, !"PIC Level", i32 2}
!2 = !{i32 7, !"PIE Level", i32 2}
!3 = !{i32 7, !"uwtable", i32 1}
!4 = !{!"clang version 13.0.0"}
!5 = !{!6, !6, i64 0}
!6 = !{!"omnipotent char", !7, i64 0}
!7 = !{!"Simple C/C++ TBAA"}
!8 = distinct !{!8, !9}
!9 = !{!"llvm.loop.mustprogress"}
!10 = distinct !{!10, !9}
!11 = !{!12, !12, i64 0}
!12 = !{!"double", !6, i64 0}
